target datalayout = "e-m:e-p270:32:32-p271:32:32-p272:64:64-i64:64-i128:128-f80:128-n8:16:32:64-S128"
target triple = "x86_64-unknown-linux-gnu"

%"class.Imath_3_2::Vec2" = type { i32, i32 }
%"class.Imf_3_2::Image" = type { ptr, %"class.Imath_3_2::Box", i32, i32, %"class.std::map", %"class.Imf_3_2::Array2D" }
%"class.Imath_3_2::Box" = type { %"class.Imath_3_2::Vec2", %"class.Imath_3_2::Vec2" }
%"class.std::map" = type { %"class.std::_Rb_tree" }
%"class.std::_Rb_tree" = type { %"struct.std::_Rb_tree<std::__cxx11::basic_string<char>, std::pair<const std::__cxx11::basic_string<char>, Imf_3_2::Image::ChannelInfo>, std::_Select1st<std::pair<const std::__cxx11::basic_string<char>, Imf_3_2::Image::ChannelInfo>>, std::less<std::__cxx11::basic_string<char>>>::_Rb_tree_impl" }
%"struct.std::_Rb_tree<std::__cxx11::basic_string<char>, std::pair<const std::__cxx11::basic_string<char>, Imf_3_2::Image::ChannelInfo>, std::_Select1st<std::pair<const std::__cxx11::basic_string<char>, Imf_3_2::Image::ChannelInfo>>, std::less<std::__cxx11::basic_string<char>>>::_Rb_tree_impl" = type { %"struct.std::_Rb_tree_key_compare", %"struct.std::_Rb_tree_header" }
%"struct.std::_Rb_tree_key_compare" = type { %"struct.std::less" }
%"struct.std::less" = type { i8 }
%"struct.std::_Rb_tree_header" = type { %"struct.std::_Rb_tree_node_base", i64 }
%"struct.std::_Rb_tree_node_base" = type { i32, ptr, ptr, ptr }
%"class.Imf_3_2::Array2D" = type { i64, i64, ptr }

; Function Attrs: mustprogress nounwind uwtable
define linkonce_odr hidden noundef ptr @_ZNK7Imf_3_27Array2DIPNS_10ImageLevelEEixEl(ptr noundef nonnull align 8 dereferenceable(24) %this, i64 noundef %x) #5 comdat align 2 {
entry:
  %this.addr = alloca ptr, align 8
  %x.addr = alloca i64, align 8
  store ptr %this, ptr %this.addr, align 8
  store i64 %x, ptr %x.addr, align 8
  %this1 = load ptr, ptr %this.addr, align 8
  %_data = getelementptr inbounds %"class.Imf_3_2::Array2D", ptr %this1, i32 0, i32 2
  %0 = load ptr, ptr %_data, align 8
  %1 = load i64, ptr %x.addr, align 8
  %_sizeY = getelementptr inbounds %"class.Imf_3_2::Array2D", ptr %this1, i32 0, i32 1
  %2 = load i64, ptr %_sizeY, align 8
  %mul = mul nsw i64 %1, %2
  %add.ptr = getelementptr inbounds ptr, ptr %0, i64 %mul
  ret ptr %add.ptr
}

; Function Attrs: mustprogress nounwind uwtable
define linkonce_odr hidden noundef i64 @_ZNK7Imf_3_27Array2DIPNS_10ImageLevelEE6heightEv(ptr noundef nonnull align 8 dereferenceable(24) %this) #5 comdat align 2 {
entry:
  %this.addr = alloca ptr, align 8
  store ptr %this, ptr %this.addr, align 8
  %this1 = load ptr, ptr %this.addr, align 8
  %_sizeX = getelementptr inbounds %"class.Imf_3_2::Array2D", ptr %this1, i32 0, i32 0
  %0 = load i64, ptr %_sizeX, align 8
  ret i64 %0
}

; Function Attrs: mustprogress nounwind uwtable
define linkonce_odr hidden noundef i64 @_ZNK7Imf_3_27Array2DIPNS_10ImageLevelEE5widthEv(ptr noundef nonnull align 8 dereferenceable(24) %this) #5 comdat align 2 {
entry:
  %this.addr = alloca ptr, align 8
  store ptr %this, ptr %this.addr, align 8
  %this1 = load ptr, ptr %this.addr, align 8
  %_sizeY = getelementptr inbounds %"class.Imf_3_2::Array2D", ptr %this1, i32 0, i32 1
  %0 = load i64, ptr %_sizeY, align 8
  ret i64 %0
}

; Function Attrs: mustprogress uwtable
define hidden noundef zeroext i1 @_ZNK7Imf_3_25Image18levelNumberIsValidEii(ptr noundef nonnull align 8 dereferenceable(104) %this, i32 noundef %lx, i32 noundef %ly) #4 align 2 {
entry:
  %this.addr = alloca ptr, align 8
  %lx.addr = alloca i32, align 4
  %ly.addr = alloca i32, align 4
  store ptr %this, ptr %this.addr, align 8
  store i32 %lx, ptr %lx.addr, align 4
  store i32 %ly, ptr %ly.addr, align 4
  %this1 = load ptr, ptr %this.addr, align 8
  %0 = load i32, ptr %lx.addr, align 4
  %cmp = icmp sge i32 %0, 0
  br i1 %cmp, label %land.lhs.true, label %land.end

land.lhs.true:                                    ; preds = %entry
  %1 = load i32, ptr %lx.addr, align 4
  %conv = sext i32 %1 to i64
  %_levels = getelementptr inbounds %"class.Imf_3_2::Image", ptr %this1, i32 0, i32 5
  %call = call noundef i64 @_ZNK7Imf_3_27Array2DIPNS_10ImageLevelEE5widthEv(ptr noundef nonnull align 8 dereferenceable(24) %_levels)
  %cmp2 = icmp slt i64 %conv, %call
  br i1 %cmp2, label %land.lhs.true3, label %land.end

land.lhs.true3:                                   ; preds = %land.lhs.true
  %2 = load i32, ptr %ly.addr, align 4
  %cmp4 = icmp sge i32 %2, 0
  br i1 %cmp4, label %land.lhs.true5, label %land.end

land.lhs.true5:                                   ; preds = %land.lhs.true3
  %3 = load i32, ptr %ly.addr, align 4
  %conv6 = sext i32 %3 to i64
  %_levels7 = getelementptr inbounds %"class.Imf_3_2::Image", ptr %this1, i32 0, i32 5
  %call8 = call noundef i64 @_ZNK7Imf_3_27Array2DIPNS_10ImageLevelEE6heightEv(ptr noundef nonnull align 8 dereferenceable(24) %_levels7)
  %cmp9 = icmp slt i64 %conv6, %call8
  br i1 %cmp9, label %land.rhs, label %land.end

land.rhs:                                         ; preds = %land.lhs.true5
  %_levels10 = getelementptr inbounds %"class.Imf_3_2::Image", ptr %this1, i32 0, i32 5
  %4 = load i32, ptr %ly.addr, align 4
  %conv11 = sext i32 %4 to i64
  %call12 = call noundef ptr @_ZNK7Imf_3_27Array2DIPNS_10ImageLevelEEixEl(ptr noundef nonnull align 8 dereferenceable(24) %_levels10, i64 noundef %conv11)
  %5 = load i32, ptr %lx.addr, align 4
  %idxprom = sext i32 %5 to i64
  %arrayidx = getelementptr inbounds ptr, ptr %call12, i64 %idxprom
  %6 = load ptr, ptr %arrayidx, align 8
  %cmp13 = icmp ne ptr %6, null
  br label %land.end

land.end:                                         ; preds = %land.rhs, %land.lhs.true5, %land.lhs.true3, %land.lhs.true, %entry
  %7 = phi i1 [ false, %land.lhs.true5 ], [ false, %land.lhs.true3 ], [ false, %land.lhs.true ], [ false, %entry ], [ %cmp13, %land.rhs ]
  ret i1 %7
}