; Function Attrs: mustprogress nofree norecurse nosync nounwind willreturn memory(read, inaccessiblemem: none) uwtable
define hidden noundef zeroext i1 @_ZNK7Imf_3_25Image18levelNumberIsValidEii(ptr nocapture noundef nonnull readonly align 8 dereferenceable(104) %this, i32 noundef %lx, i32 noundef %ly) local_unnamed_addr #12 align 2 {
entry:
  %cmp = icmp sgt i32 %lx, -1
  br i1 %cmp, label %land.lhs.true, label %land.end

land.lhs.true:                                    ; preds = %entry
  %conv = zext nneg i32 %lx to i64
  %_sizeY.i = getelementptr inbounds i8, ptr %this, i64 88
  %0 = load i64, ptr %_sizeY.i, align 8
  %cmp2 = icmp sgt i64 %0, %conv
  %cmp4 = icmp sgt i32 %ly, -1
  %or.cond = and i1 %cmp4, %cmp2
  br i1 %or.cond, label %land.lhs.true5, label %land.end

land.lhs.true5:                                   ; preds = %land.lhs.true
  %_levels = getelementptr inbounds i8, ptr %this, i64 80
  %conv6 = zext nneg i32 %ly to i64
  %1 = load i64, ptr %_levels, align 8
  %cmp9 = icmp sgt i64 %1, %conv6
  br i1 %cmp9, label %land.rhs, label %land.end

land.rhs:                                         ; preds = %land.lhs.true5
  %_data.i = getelementptr inbounds i8, ptr %this, i64 96
  %2 = load ptr, ptr %_data.i, align 8
  %mul.i = mul nsw i64 %0, %conv6
  %add.ptr.i = getelementptr inbounds ptr, ptr %2, i64 %mul.i
  %arrayidx = getelementptr inbounds ptr, ptr %add.ptr.i, i64 %conv
  %3 = load ptr, ptr %arrayidx, align 8
  %cmp13 = icmp ne ptr %3, null
  br label %land.end

land.end:                                         ; preds = %land.rhs, %land.lhs.true5, %land.lhs.true, %entry
  %4 = phi i1 [ false, %land.lhs.true5 ], [ false, %land.lhs.true ], [ false, %entry ], [ %cmp13, %land.rhs ]
  ret i1 %4
}